; Function Attrs: mustprogress uwtable
define hidden void @_ZN3ue213prefilterTreeERSt10unique_ptrINS_9ComponentESt14default_deleteIS1_EERKNS_9ParseModeE(ptr noundef nonnull align 8 captures(none) dereferenceable(8) %0, ptr noundef nonnull align 1 dereferenceable(6) %1) local_unnamed_addr #3 personality ptr @__gxx_personality_v0 {
  %3 = alloca %"class.ue2::PrefilterVisitor", align 8
  call void @llvm.lifetime.start.p0(i64 24, ptr nonnull %3) #20
  %4 = load ptr, ptr %0, align 8
  call void @_ZN3ue223DefaultComponentVisitorC2Ev(ptr noundef nonnull align 8 dereferenceable(24) %3)
  store ptr getelementptr inbounds nuw inrange(-16, 240) (i8, ptr @_ZTVN3ue216PrefilterVisitorE, i64 16), ptr %3, align 8
  %5 = getelementptr inbounds nuw i8, ptr %3, i64 8
  store ptr %4, ptr %5, align 8
  %6 = getelementptr inbounds nuw i8, ptr %3, i64 16
  store ptr %1, ptr %6, align 8
  %7 = load ptr, ptr %0, align 8
  %8 = load ptr, ptr %7, align 8
  %9 = getelementptr inbounds nuw i8, ptr %8, i64 24
  %10 = load ptr, ptr %9, align 8
  %11 = invoke noundef ptr %10(ptr noundef nonnull align 8 dereferenceable(16) %7, ptr noundef nonnull align 8 dereferenceable(8) %3)
          to label %12 unwind label %18

12:                                               ; preds = %2
  %13 = load ptr, ptr %0, align 8
  %.not = icmp eq ptr %11, %13
  br i1 %.not, label %_ZNSt10unique_ptrIN3ue29ComponentESt14default_deleteIS1_EE5resetEPS1_.exit, label %14

14:                                               ; preds = %12
  store ptr %11, ptr %0, align 8
  %.not.i.i = icmp eq ptr %13, null
  br i1 %.not.i.i, label %_ZNSt10unique_ptrIN3ue29ComponentESt14default_deleteIS1_EE5resetEPS1_.exit, label %_ZNKSt14default_deleteIN3ue29ComponentEEclEPS1_.exit.i.i

_ZNKSt14default_deleteIN3ue29ComponentEEclEPS1_.exit.i.i: ; preds = %14
  %15 = load ptr, ptr %13, align 8
  %16 = getelementptr inbounds nuw i8, ptr %15, i64 8
  %17 = load ptr, ptr %16, align 8
  call void %17(ptr noundef nonnull align 8 dereferenceable(16) %13) #20
  br label %_ZNSt10unique_ptrIN3ue29ComponentESt14default_deleteIS1_EE5resetEPS1_.exit

18:                                               ; preds = %2
  %19 = landingpad { ptr, i32 }
          cleanup
  call void @_ZN3ue223DefaultComponentVisitorD2Ev(ptr noundef nonnull align 8 dereferenceable(24) %3) #20
  call void @llvm.lifetime.end.p0(i64 24, ptr nonnull %3) #20
  resume { ptr, i32 } %19

_ZNSt10unique_ptrIN3ue29ComponentESt14default_deleteIS1_EE5resetEPS1_.exit: ; preds = %_ZNKSt14default_deleteIN3ue29ComponentEEclEPS1_.exit.i.i, %14, %12
  call void @_ZN3ue223DefaultComponentVisitorD2Ev(ptr noundef nonnull align 8 dereferenceable(24) %3) #20
  call void @llvm.lifetime.end.p0(i64 24, ptr nonnull %3) #20
  ret void
}